target datalayout = "e-m:e-p270:32:32-p271:32:32-p272:64:64-i64:64-i128:128-f80:128-n8:16:32:64-S128"
target triple = "x86_64-pc-linux-gnu"

%struct.darktable_t = type { %struct.dt_codepath_t, i32, i32, ptr, ptr, ptr, ptr, ptr, ptr, ptr, ptr, ptr, ptr, ptr, ptr, ptr, ptr, ptr, ptr, ptr, ptr, ptr, ptr, ptr, ptr, ptr, ptr, ptr, ptr, ptr, [64 x %struct.dt_pthread_mutex_t], %struct.dt_pthread_mutex_t, %struct.dt_pthread_mutex_t, %struct.dt_pthread_mutex_t, %struct.dt_pthread_mutex_t, %struct.dt_pthread_mutex_t, ptr, ptr, ptr, ptr, ptr, ptr, ptr, ptr, ptr, ptr, ptr, ptr, ptr, %struct.dt_lua_state_t, ptr, double, ptr, i32, [47 x i32], i32, i32, ptr, ptr, %struct.dt_sys_resources_t, %struct.dt_backthumb_t, %struct.dt_gimp_t }
%struct.dt_codepath_t = type { i8, [3 x i8] }
%struct.dt_pthread_mutex_t = type { %union.pthread_mutex_t }
%union.pthread_mutex_t = type { %struct.__pthread_mutex_s }
%struct.__pthread_mutex_s = type { i32, i32, i32, i32, i32, i16, i16, %struct.__pthread_internal_list }
%struct.__pthread_internal_list = type { ptr, ptr }
%struct.dt_lua_state_t = type { i32 }
%struct.dt_sys_resources_t = type { i64, i64, ptr, ptr, i32 }
%struct.dt_backthumb_t = type { double, double, i32, i32, i32, i32 }
%struct.dt_gimp_t = type { i32, ptr, ptr, i32, i32 }
%struct.dt_gui_gtk_t = type { ptr, %struct.dt_gui_widgets_t, %struct.dt_gui_scrollbars_t, i32, ptr, i32, [39 x %struct._GdkRGBA], i32, i32, i32, i32, i32, double, double, double, double, ptr, double, double, double, double, i32, i32, [4096 x i8], i32, i32, i32, %struct.dt_pthread_mutex_t }
%struct.dt_gui_widgets_t = type { ptr, ptr, ptr, ptr, i32, i32, i32 }
%struct.dt_gui_scrollbars_t = type { ptr, ptr, i32 }
%struct._GdkRGBA = type { double, double, double, double }

@darktable = external global %struct.darktable_t, align 8
@.str.60 = private unnamed_addr constant [8 x i8] c"_cancel\00", align 1
@.str.142 = private unnamed_addr constant [55 x i8] c"plugins/lighttable/tagging/last_import_export_location\00", align 1
@.str.147 = private unnamed_addr constant [28 x i8] c"darktable_tags_%F_%H-%M.txt\00", align 1
@.str.148 = private unnamed_addr constant [25 x i8] c"select file to export to\00", align 1
@.str.149 = private unnamed_addr constant [8 x i8] c"_export\00", align 1
@.str.150 = private unnamed_addr constant [21 x i8] c"error exporting tags\00", align 1
@.str.151 = private unnamed_addr constant [18 x i8] c"%zd tags exported\00", align 1

; Function Attrs: inlinehint nounwind uwtable
define internal ptr @GTK_NATIVE_DIALOG(ptr noundef %0) #7 {
  %2 = alloca ptr, align 8
  store ptr %0, ptr %2, align 8, !tbaa !51
  %3 = load ptr, ptr %2, align 8, !tbaa !51
  %4 = call i64 @gtk_native_dialog_get_type()
  %5 = call ptr @g_type_check_instance_cast(ptr noundef %3, i64 noundef %4)
  ret ptr %5
}

; Function Attrs: nounwind uwtable
define internal void @_export_button_clicked(ptr noundef %0, ptr noundef %1) #0 {
  %3 = alloca ptr, align 8
  %4 = alloca ptr, align 8
  %5 = alloca ptr, align 8
  %6 = alloca ptr, align 8
  %7 = alloca ptr, align 8
  %8 = alloca ptr, align 8
  %9 = alloca ptr, align 8
  %10 = alloca ptr, align 8
  %11 = alloca ptr, align 8
  %12 = alloca i64, align 8
  store ptr %0, ptr %3, align 8, !tbaa !154
  store ptr %1, ptr %4, align 8, !tbaa !6
  call void @llvm.lifetime.start.p0(i64 8, ptr %5) #11
  %13 = call ptr @g_date_time_new_now_local()
  store ptr %13, ptr %5, align 8, !tbaa !180
  call void @llvm.lifetime.start.p0(i64 8, ptr %6) #11
  %14 = load ptr, ptr %5, align 8, !tbaa !180
  %15 = call noalias ptr @g_date_time_format(ptr noundef %14, ptr noundef @.str.147)
  store ptr %15, ptr %6, align 8, !tbaa !49
  call void @llvm.lifetime.start.p0(i64 8, ptr %7) #11
  %16 = call ptr @dt_conf_get_string_const(ptr noundef @.str.142)
  store ptr %16, ptr %7, align 8, !tbaa !49
  %17 = load ptr, ptr %7, align 8, !tbaa !49
  %18 = icmp ne ptr %17, null
  br i1 %18, label %19, label %23

19:                                               ; preds = %2
  %20 = load ptr, ptr %7, align 8, !tbaa !49
  %21 = load i8, ptr %20, align 1, !tbaa !52
  %22 = icmp ne i8 %21, 0
  br i1 %22, label %25, label %23

23:                                               ; preds = %19, %2
  %24 = call ptr @g_get_home_dir()
  store ptr %24, ptr %7, align 8, !tbaa !49
  br label %25

25:                                               ; preds = %23, %19
  call void @llvm.lifetime.start.p0(i64 8, ptr %8) #11
  %26 = load ptr, ptr getelementptr inbounds nuw (%struct.darktable_t, ptr @darktable, i32 0, i32 14), align 8, !tbaa !158
  %27 = getelementptr inbounds nuw %struct.dt_gui_gtk_t, ptr %26, i32 0, i32 0
  %28 = load ptr, ptr %27, align 8, !tbaa !165
  %29 = call ptr @dt_ui_main_window(ptr noundef %28)
  store ptr %29, ptr %8, align 8, !tbaa !108
  call void @llvm.lifetime.start.p0(i64 8, ptr %9) #11
  %30 = call ptr @dcgettext(ptr noundef null, ptr noundef @.str.148, i32 noundef 5) #11
  %31 = load ptr, ptr %8, align 8, !tbaa !108
  %32 = call i64 @gtk_window_get_type() #12
  %33 = call ptr @g_type_check_instance_cast(ptr noundef %31, i64 noundef %32)
  %34 = call ptr @dcgettext(ptr noundef null, ptr noundef @.str.149, i32 noundef 5) #11
  %35 = call ptr @dcgettext(ptr noundef null, ptr noundef @.str.60, i32 noundef 5) #11
  %36 = call ptr @gtk_file_chooser_native_new(ptr noundef %30, ptr noundef %33, i32 noundef 1, ptr noundef %34, ptr noundef %35)
  store ptr %36, ptr %9, align 8, !tbaa !177
  %37 = load ptr, ptr %9, align 8, !tbaa !177
  %38 = call i64 @gtk_file_chooser_get_type() #12
  %39 = call ptr @g_type_check_instance_cast(ptr noundef %37, i64 noundef %38)
  call void @gtk_file_chooser_set_do_overwrite_confirmation(ptr noundef %39, i32 noundef 1)
  %40 = load ptr, ptr %9, align 8, !tbaa !177
  %41 = call i64 @gtk_file_chooser_get_type() #12
  %42 = call ptr @g_type_check_instance_cast(ptr noundef %40, i64 noundef %41)
  %43 = load ptr, ptr %7, align 8, !tbaa !49
  %44 = call i32 @gtk_file_chooser_set_current_folder(ptr noundef %42, ptr noundef %43)
  %45 = load ptr, ptr %9, align 8, !tbaa !177
  %46 = call i64 @gtk_file_chooser_get_type() #12
  %47 = call ptr @g_type_check_instance_cast(ptr noundef %45, i64 noundef %46)
  %48 = load ptr, ptr %6, align 8, !tbaa !49
  call void @gtk_file_chooser_set_current_name(ptr noundef %47, ptr noundef %48)
  %49 = load ptr, ptr %9, align 8, !tbaa !177
  %50 = call ptr @GTK_NATIVE_DIALOG(ptr noundef %49)
  %51 = call i32 @gtk_native_dialog_run(ptr noundef %50)
  %52 = icmp eq i32 %51, -3
  br i1 %52, label %53, label %73

53:                                               ; preds = %25
  call void @llvm.lifetime.start.p0(i64 8, ptr %10) #11
  %54 = load ptr, ptr %9, align 8, !tbaa !177
  %55 = call i64 @gtk_file_chooser_get_type() #12
  %56 = call ptr @g_type_check_instance_cast(ptr noundef %54, i64 noundef %55)
  %57 = call ptr @gtk_file_chooser_get_filename(ptr noundef %56)
  store ptr %57, ptr %10, align 8, !tbaa !49
  call void @llvm.lifetime.start.p0(i64 8, ptr %11) #11
  %58 = load ptr, ptr %10, align 8, !tbaa !49
  %59 = call noalias ptr @g_path_get_dirname(ptr noundef %58)
  store ptr %59, ptr %11, align 8, !tbaa !49
  %60 = load ptr, ptr %11, align 8, !tbaa !49
  call void @dt_conf_set_string(ptr noundef @.str.142, ptr noundef %60)
  call void @llvm.lifetime.start.p0(i64 8, ptr %12) #11
  %61 = load ptr, ptr %10, align 8, !tbaa !49
  %62 = call i64 @dt_tag_export(ptr noundef %61)
  store i64 %62, ptr %12, align 8, !tbaa !179
  %63 = load i64, ptr %12, align 8, !tbaa !179
  %64 = icmp slt i64 %63, 0
  br i1 %64, label %65, label %67

65:                                               ; preds = %53
  %66 = call ptr @dcgettext(ptr noundef null, ptr noundef @.str.150, i32 noundef 5) #11
  call void (ptr, ...) @dt_control_log(ptr noundef %66)
  br label %70

67:                                               ; preds = %53
  %68 = call ptr @dcgettext(ptr noundef null, ptr noundef @.str.151, i32 noundef 5) #11
  %69 = load i64, ptr %12, align 8, !tbaa !179
  call void (ptr, ...) @dt_control_log(ptr noundef %68, i64 noundef %69)
  br label %70

70:                                               ; preds = %67, %65
  %71 = load ptr, ptr %10, align 8, !tbaa !49
  call void @g_free(ptr noundef %71)
  %72 = load ptr, ptr %11, align 8, !tbaa !49
  call void @g_free(ptr noundef %72)
  call void @llvm.lifetime.end.p0(i64 8, ptr %12) #11
  call void @llvm.lifetime.end.p0(i64 8, ptr %11) #11
  call void @llvm.lifetime.end.p0(i64 8, ptr %10) #11
  br label %73

73:                                               ; preds = %70, %25
  %74 = load ptr, ptr %5, align 8, !tbaa !180
  call void @g_date_time_unref(ptr noundef %74)
  %75 = load ptr, ptr %6, align 8, !tbaa !49
  call void @g_free(ptr noundef %75)
  %76 = load ptr, ptr %9, align 8, !tbaa !177
  call void @g_object_unref(ptr noundef %76)
  call void @llvm.lifetime.end.p0(i64 8, ptr %9) #11
  call void @llvm.lifetime.end.p0(i64 8, ptr %8) #11
  call void @llvm.lifetime.end.p0(i64 8, ptr %7) #11
  call void @llvm.lifetime.end.p0(i64 8, ptr %6) #11
  call void @llvm.lifetime.end.p0(i64 8, ptr %5) #11
  ret void
}