; Function Attrs: nounwind uwtable
define internal void @_export_button_clicked(ptr readnone captures(none) %0, ptr readnone captures(none) %1) #1 {
  %3 = tail call ptr @g_date_time_new_now_local() #16
  %4 = tail call noalias ptr @g_date_time_format(ptr noundef %3, ptr noundef nonnull @.str.147) #16
  %5 = tail call ptr @dt_conf_get_string_const(ptr noundef nonnull @.str.142) #16
  %.not = icmp eq ptr %5, null
  br i1 %.not, label %8, label %6

6:                                                ; preds = %2
  %7 = load i8, ptr %5, align 1, !tbaa !40
  %.not22 = icmp eq i8 %7, 0
  br i1 %.not22, label %8, label %10

8:                                                ; preds = %6, %2
  %9 = tail call ptr @g_get_home_dir() #16
  br label %10

10:                                               ; preds = %8, %6
  %.0 = phi ptr [ %5, %6 ], [ %9, %8 ]
  %11 = load ptr, ptr getelementptr inbounds nuw (i8, ptr @darktable, i64 104), align 8, !tbaa !125
  %12 = load ptr, ptr %11, align 8, !tbaa !131
  %13 = tail call ptr @dt_ui_main_window(ptr noundef %12) #16
  %14 = tail call ptr @dcgettext(ptr noundef null, ptr noundef nonnull @.str.148, i32 noundef 5) #16
  %15 = tail call i64 @gtk_window_get_type() #17
  %16 = tail call ptr @g_type_check_instance_cast(ptr noundef %13, i64 noundef %15) #16
  %17 = tail call ptr @dcgettext(ptr noundef null, ptr noundef nonnull @.str.149, i32 noundef 5) #16
  %18 = tail call ptr @dcgettext(ptr noundef null, ptr noundef nonnull @.str.60, i32 noundef 5) #16
  %19 = tail call ptr @gtk_file_chooser_native_new(ptr noundef %14, ptr noundef %16, i32 noundef 1, ptr noundef %17, ptr noundef %18) #16
  %20 = tail call i64 @gtk_file_chooser_get_type() #17
  %21 = tail call ptr @g_type_check_instance_cast(ptr noundef %19, i64 noundef %20) #16
  tail call void @gtk_file_chooser_set_do_overwrite_confirmation(ptr noundef %21, i32 noundef 1) #16
  %22 = tail call ptr @g_type_check_instance_cast(ptr noundef %19, i64 noundef %20) #16
  %23 = tail call i32 @gtk_file_chooser_set_current_folder(ptr noundef %22, ptr noundef %.0) #16
  %24 = tail call ptr @g_type_check_instance_cast(ptr noundef %19, i64 noundef %20) #16
  tail call void @gtk_file_chooser_set_current_name(ptr noundef %24, ptr noundef %4) #16
  %25 = tail call i64 @gtk_native_dialog_get_type() #16
  %26 = tail call ptr @g_type_check_instance_cast(ptr noundef %19, i64 noundef %25) #16
  %27 = tail call i32 @gtk_native_dialog_run(ptr noundef %26) #16
  %28 = icmp eq i32 %27, -3
  br i1 %28, label %29, label %40

29:                                               ; preds = %10
  %30 = tail call ptr @g_type_check_instance_cast(ptr noundef %19, i64 noundef %20) #16
  %31 = tail call ptr @gtk_file_chooser_get_filename(ptr noundef %30) #16
  %32 = tail call noalias ptr @g_path_get_dirname(ptr noundef %31) #16
  tail call void @dt_conf_set_string(ptr noundef nonnull @.str.142, ptr noundef %32) #16
  %33 = tail call i64 @dt_tag_export(ptr noundef %31) #16
  %34 = icmp slt i64 %33, 0
  br i1 %34, label %35, label %37

35:                                               ; preds = %29
  %36 = tail call ptr @dcgettext(ptr noundef null, ptr noundef nonnull @.str.150, i32 noundef 5) #16
  tail call void (ptr, ...) @dt_control_log(ptr noundef %36) #16
  br label %39

37:                                               ; preds = %29
  %38 = tail call ptr @dcgettext(ptr noundef null, ptr noundef nonnull @.str.151, i32 noundef 5) #16
  tail call void (ptr, ...) @dt_control_log(ptr noundef %38, i64 noundef %33) #16
  br label %39

39:                                               ; preds = %37, %35
  tail call void @g_free(ptr noundef %31) #16
  tail call void @g_free(ptr noundef %32) #16
  br label %40

40:                                               ; preds = %39, %10
  tail call void @g_date_time_unref(ptr noundef %3) #16
  tail call void @g_free(ptr noundef %4) #16
  tail call void @g_object_unref(ptr noundef %19) #16
  ret void
}